; Function Attrs: mustprogress uwtable
define internal void @"_ZNSt17_Function_handlerIFvvEZN2cv5gimpl17GThreadedExecutorC1EjOSt10unique_ptrIN3ade5GraphESt14default_deleteIS6_EEE3$_0E9_M_invokeERKSt9_Any_data"(ptr noundef nonnull readonly align 8 captures(none) dereferenceable(16) %0) #3 align 2 {
  %.val = load ptr, ptr %0, align 8, !tbaa !46
  %.val1 = load ptr, ptr %.val, align 8, !tbaa !354
  %2 = load ptr, ptr %.val1, align 8, !tbaa !175
  %3 = getelementptr inbounds nuw i8, ptr %.val1, i64 16
  %4 = getelementptr inbounds nuw i8, ptr %.val1, i64 56
  %5 = load ptr, ptr %2, align 8, !tbaa !33
  %6 = getelementptr inbounds nuw i8, ptr %5, i64 8
  %7 = load ptr, ptr %6, align 8
  tail call void %7(ptr noundef nonnull align 8 dereferenceable(8) %2, ptr noundef nonnull align 8 dereferenceable(32) %3, ptr noundef nonnull align 8 dereferenceable(32) %4)
  ret void
}